target datalayout = "e-m:e-p270:32:32-p271:32:32-p272:64:64-i64:64-i128:128-f80:128-n8:16:32:64-S128"
target triple = "x86_64-pc-linux-gnu"

%"class.icu_77::RBBITableBuilder" = type <{ ptr, ptr, ptr, ptr, ptr, ptr, i32, [4 x i8] }>
%"class.icu_77::UVector" = type { %"class.icu_77::UObject", i32, i32, ptr, ptr, ptr }
%"class.icu_77::UObject" = type { ptr }
%"class.icu_77::RBBIStateDescriptor" = type { i8, i32, i32, ptr, i32, ptr, ptr }

; Function Attrs: inlinehint mustprogress nounwind uwtable
define linkonce_odr noundef i32 @_ZNK6icu_777UVector4sizeEv(ptr noundef nonnull align 8 dereferenceable(40) %0) #1 comdat align 2 {
  %2 = alloca ptr, align 8
  store ptr %0, ptr %2, align 8, !tbaa !31
  %3 = load ptr, ptr %2, align 8
  %4 = getelementptr inbounds nuw %"class.icu_77::UVector", ptr %3, i32 0, i32 1
  %5 = load i32, ptr %4, align 8, !tbaa !32
  ret i32 %5
}

; Function Attrs: mustprogress uwtable
define void @_ZN6icu_7716RBBITableBuilder12removeColumnEi(ptr noundef nonnull align 8 dereferenceable(52) %0, i32 noundef %1) #0 align 2 {
  %3 = alloca ptr, align 8
  %4 = alloca i32, align 4
  %5 = alloca i32, align 4
  %6 = alloca i32, align 4
  %7 = alloca ptr, align 8
  store ptr %0, ptr %3, align 8, !tbaa !3
  store i32 %1, ptr %4, align 4, !tbaa !26
  %8 = load ptr, ptr %3, align 8
  call void @llvm.lifetime.start.p0(i64 4, ptr %5) #11
  %9 = getelementptr inbounds nuw %"class.icu_77::RBBITableBuilder", ptr %8, i32 0, i32 3
  %10 = load ptr, ptr %9, align 8, !tbaa !20
  %11 = call noundef i32 @_ZNK6icu_777UVector4sizeEv(ptr noundef nonnull align 8 dereferenceable(40) %10)
  store i32 %11, ptr %5, align 4, !tbaa !26
  call void @llvm.lifetime.start.p0(i64 4, ptr %6) #11
  store i32 0, ptr %6, align 4, !tbaa !26
  br label %12

12:                                               ; preds = %26, %2
  %13 = load i32, ptr %6, align 4, !tbaa !26
  %14 = load i32, ptr %5, align 4, !tbaa !26
  %15 = icmp slt i32 %13, %14
  br i1 %15, label %17, label %16

16:                                               ; preds = %12
  call void @llvm.lifetime.end.p0(i64 4, ptr %6) #11
  br label %29

17:                                               ; preds = %12
  call void @llvm.lifetime.start.p0(i64 8, ptr %7) #11
  %18 = getelementptr inbounds nuw %"class.icu_77::RBBITableBuilder", ptr %8, i32 0, i32 3
  %19 = load ptr, ptr %18, align 8, !tbaa !20
  %20 = load i32, ptr %6, align 4, !tbaa !26
  %21 = call noundef ptr @_ZNK6icu_777UVector9elementAtEi(ptr noundef nonnull align 8 dereferenceable(40) %19, i32 noundef %20)
  store ptr %21, ptr %7, align 8, !tbaa !70
  %22 = load ptr, ptr %7, align 8, !tbaa !70
  %23 = getelementptr inbounds nuw %"class.icu_77::RBBIStateDescriptor", ptr %22, i32 0, i32 6
  %24 = load ptr, ptr %23, align 8, !tbaa !79
  %25 = load i32, ptr %4, align 4, !tbaa !26
  call void @_ZN6icu_779UVector3215removeElementAtEi(ptr noundef nonnull align 8 dereferenceable(32) %24, i32 noundef %25)
  call void @llvm.lifetime.end.p0(i64 8, ptr %7) #11
  br label %26

26:                                               ; preds = %17
  %27 = load i32, ptr %6, align 4, !tbaa !26
  %28 = add nsw i32 %27, 1
  store i32 %28, ptr %6, align 4, !tbaa !26
  br label %12, !llvm.loop !134

29:                                               ; preds = %16
  call void @llvm.lifetime.end.p0(i64 4, ptr %5) #11
  ret void
}