; Function Attrs: mustprogress uwtable
define void @_ZN6icu_7716RBBITableBuilder12removeColumnEi(ptr noundef nonnull readonly align 8 captures(none) dereferenceable(52) %0, i32 noundef %1) local_unnamed_addr #0 align 2 {
  %3 = getelementptr inbounds nuw i8, ptr %0, i64 24
  %4 = load ptr, ptr %3, align 8, !tbaa !19
  %5 = getelementptr inbounds nuw i8, ptr %4, i64 8
  %6 = load i32, ptr %5, align 8, !tbaa !20
  %7 = icmp sgt i32 %6, 0
  br i1 %7, label %.lr.ph, label %._crit_edge

._crit_edge:                                      ; preds = %.lr.ph, %2
  ret void

.lr.ph:                                           ; preds = %2, %.lr.ph
  %.06 = phi i32 [ %12, %.lr.ph ], [ 0, %2 ]
  %8 = load ptr, ptr %3, align 8, !tbaa !19
  %9 = tail call noundef ptr @_ZNK6icu_777UVector9elementAtEi(ptr noundef nonnull align 8 dereferenceable(40) %8, i32 noundef %.06)
  %10 = getelementptr inbounds nuw i8, ptr %9, i64 40
  %11 = load ptr, ptr %10, align 8, !tbaa !68
  tail call void @_ZN6icu_779UVector3215removeElementAtEi(ptr noundef nonnull align 8 dereferenceable(32) %11, i32 noundef %1)
  %12 = add nuw nsw i32 %.06, 1
  %exitcond.not = icmp eq i32 %12, %6
  br i1 %exitcond.not, label %._crit_edge, label %.lr.ph, !llvm.loop !112
}